target datalayout = "e-m:e-p270:32:32-p271:32:32-p272:64:64-i64:64-i128:128-f80:128-n8:16:32:64-S128"
target triple = "x86_64-pc-linux-gnu"

%struct.print_field = type { i32, ptr, ptr, i16 }

@print_fields_parsable_print = dso_local global i32 0, align 4
@fields_delimiter = dso_local global ptr null, align 8
@.str = private unnamed_addr constant [3 x i8] c"%s\00", align 1
@.str.7 = private unnamed_addr constant [2 x i8] c" \00", align 1
@.str.8 = private unnamed_addr constant [2 x i8] c"|\00", align 1
@.str.9 = private unnamed_addr constant [5 x i8] c"%*s \00", align 1
@.str.15 = private unnamed_addr constant [5 x i8] c"%llu\00", align 1
@.str.16 = private unnamed_addr constant [6 x i8] c"%llu|\00", align 1
@.str.17 = private unnamed_addr constant [7 x i8] c"%llu%s\00", align 1
@.str.18 = private unnamed_addr constant [7 x i8] c"%*llu \00", align 1
@.str.19 = private unnamed_addr constant [8 x i8] c"%-*llu \00", align 1

; Function Attrs: nounwind uwtable
define dso_local void @print_fields_uint64(ptr noundef %0, ptr noundef %1, i32 noundef %2) #0 {
  %4 = alloca ptr, align 8
  %5 = alloca ptr, align 8
  %6 = alloca i32, align 4
  %7 = alloca i32, align 4
  %8 = alloca i64, align 8
  store ptr %0, ptr %4, align 8
  store ptr %1, ptr %5, align 8
  store i32 %2, ptr %6, align 4
  call void @llvm.lifetime.start.p0(i64 4, ptr %7) #10
  %9 = load ptr, ptr %4, align 8
  %10 = getelementptr inbounds nuw %struct.print_field, ptr %9, i32 0, i32 0
  %11 = load i32, ptr %10, align 8
  %12 = call i32 @llvm.abs.i32(i32 %11, i1 true)
  store i32 %12, ptr %7, align 4
  call void @llvm.lifetime.start.p0(i64 8, ptr %8) #10
  store i64 -2, ptr %8, align 8
  %13 = load ptr, ptr %5, align 8
  %14 = icmp ne ptr %13, null
  br i1 %14, label %15, label %18

15:                                               ; preds = %3
  %16 = load ptr, ptr %5, align 8
  %17 = load i64, ptr %16, align 8
  store i64 %17, ptr %8, align 8
  br label %18

18:                                               ; preds = %15, %3
  %19 = load i64, ptr %8, align 8
  %20 = icmp eq i64 %19, -2
  br i1 %20, label %24, label %21

21:                                               ; preds = %18
  %22 = load i64, ptr %8, align 8
  %23 = icmp eq i64 %22, -1
  br i1 %23, label %24, label %56

24:                                               ; preds = %21, %18
  %25 = load i32, ptr @print_fields_parsable_print, align 4
  %26 = icmp eq i32 %25, 2
  br i1 %26, label %27, label %31

27:                                               ; preds = %24
  %28 = load i32, ptr %6, align 4
  %29 = icmp ne i32 %28, 0
  br i1 %29, label %30, label %31

30:                                               ; preds = %27
  br label %55

31:                                               ; preds = %27, %24
  %32 = load i32, ptr @print_fields_parsable_print, align 4
  %33 = icmp ne i32 %32, 0
  br i1 %33, label %34, label %39

34:                                               ; preds = %31
  %35 = load ptr, ptr @fields_delimiter, align 8
  %36 = icmp ne ptr %35, null
  br i1 %36, label %39, label %37

37:                                               ; preds = %34
  %38 = call i32 (ptr, ...) @printf(ptr noundef @.str.8)
  br label %54

39:                                               ; preds = %34, %31
  %40 = load i32, ptr @print_fields_parsable_print, align 4
  %41 = icmp ne i32 %40, 0
  br i1 %41, label %42, label %48

42:                                               ; preds = %39
  %43 = load ptr, ptr @fields_delimiter, align 8
  %44 = icmp ne ptr %43, null
  br i1 %44, label %45, label %48

45:                                               ; preds = %42
  %46 = load ptr, ptr @fields_delimiter, align 8
  %47 = call i32 (ptr, ...) @printf(ptr noundef @.str, ptr noundef %46)
  br label %53

48:                                               ; preds = %42, %39
  %49 = load ptr, ptr %4, align 8
  %50 = getelementptr inbounds nuw %struct.print_field, ptr %49, i32 0, i32 0
  %51 = load i32, ptr %50, align 8
  %52 = call i32 (ptr, ...) @printf(ptr noundef @.str.9, i32 noundef %51, ptr noundef @.str.7)
  br label %53

53:                                               ; preds = %48, %45
  br label %54

54:                                               ; preds = %53, %37
  br label %55

55:                                               ; preds = %54, %30
  br label %102

56:                                               ; preds = %21
  %57 = load i32, ptr @print_fields_parsable_print, align 4
  %58 = icmp eq i32 %57, 2
  br i1 %58, label %59, label %65

59:                                               ; preds = %56
  %60 = load i32, ptr %6, align 4
  %61 = icmp ne i32 %60, 0
  br i1 %61, label %62, label %65

62:                                               ; preds = %59
  %63 = load i64, ptr %8, align 8
  %64 = call i32 (ptr, ...) @printf(ptr noundef @.str.15, i64 noundef %63)
  br label %101

65:                                               ; preds = %59, %56
  %66 = load i32, ptr @print_fields_parsable_print, align 4
  %67 = icmp ne i32 %66, 0
  br i1 %67, label %68, label %74

68:                                               ; preds = %65
  %69 = load ptr, ptr @fields_delimiter, align 8
  %70 = icmp ne ptr %69, null
  br i1 %70, label %74, label %71

71:                                               ; preds = %68
  %72 = load i64, ptr %8, align 8
  %73 = call i32 (ptr, ...) @printf(ptr noundef @.str.16, i64 noundef %72)
  br label %100

74:                                               ; preds = %68, %65
  %75 = load i32, ptr @print_fields_parsable_print, align 4
  %76 = icmp ne i32 %75, 0
  br i1 %76, label %77, label %84

77:                                               ; preds = %74
  %78 = load ptr, ptr @fields_delimiter, align 8
  %79 = icmp ne ptr %78, null
  br i1 %79, label %80, label %84

80:                                               ; preds = %77
  %81 = load i64, ptr %8, align 8
  %82 = load ptr, ptr @fields_delimiter, align 8
  %83 = call i32 (ptr, ...) @printf(ptr noundef @.str.17, i64 noundef %81, ptr noundef %82)
  br label %99

84:                                               ; preds = %77, %74
  %85 = load ptr, ptr %4, align 8
  %86 = getelementptr inbounds nuw %struct.print_field, ptr %85, i32 0, i32 0
  %87 = load i32, ptr %86, align 8
  %88 = load i32, ptr %7, align 4
  %89 = icmp eq i32 %87, %88
  br i1 %89, label %90, label %94

90:                                               ; preds = %84
  %91 = load i32, ptr %7, align 4
  %92 = load i64, ptr %8, align 8
  %93 = call i32 (ptr, ...) @printf(ptr noundef @.str.18, i32 noundef %91, i64 noundef %92)
  br label %98

94:                                               ; preds = %84
  %95 = load i32, ptr %7, align 4
  %96 = load i64, ptr %8, align 8
  %97 = call i32 (ptr, ...) @printf(ptr noundef @.str.19, i32 noundef %95, i64 noundef %96)
  br label %98

98:                                               ; preds = %94, %90
  br label %99

99:                                               ; preds = %98, %80
  br label %100

100:                                              ; preds = %99, %71
  br label %101

101:                                              ; preds = %100, %62
  br label %102

102:                                              ; preds = %101, %55
  call void @llvm.lifetime.end.p0(i64 8, ptr %8) #10
  call void @llvm.lifetime.end.p0(i64 4, ptr %7) #10
  ret void
}